target datalayout = "e-m:e-p270:32:32-p271:32:32-p272:64:64-i64:64-i128:128-f80:128-n8:16:32:64-S128"
target triple = "x86_64-pc-linux-gnu"

%struct.QTailQLink = type { ptr, ptr }
%struct.TCGContext = type { ptr, ptr, ptr, ptr, ptr, i32, i32, i32, i32, i32, i32, i32, i8, i8, i8, i32, i32, i64, i64, i64, ptr, ptr, ptr, ptr, ptr, i64, ptr, ptr, ptr, ptr, %struct.anon.3, ptr, ptr, ptr, ptr, ptr, [6 x ptr], [6 x %struct.TCGTempSet], [512 x %struct.TCGTemp], %union.anon.4, %union.anon.4, %struct.anon.5, ptr, [32 x ptr], [512 x i16], ptr, [1 x %struct.__jmp_buf_tag] }
%struct.anon.3 = type { ptr, ptr }
%struct.TCGTempSet = type { [8 x i64] }
%struct.TCGTemp = type { i64, i64, ptr, i64, ptr, i64, ptr }
%union.anon.4 = type { %struct.QTailQLink }
%struct.anon.5 = type { ptr, ptr }
%struct.__jmp_buf_tag = type { [8 x i64], i32, %struct.__sigset_t }
%struct.__sigset_t = type { [16 x i64] }

@tcg_ctx = external thread_local global ptr, align 8

; Function Attrs: inlinehint nounwind sspstrong uwtable
define internal ptr @tcgv_ptr_temp(ptr noundef %0) #4 {
  %2 = alloca ptr, align 8
  store ptr %0, ptr %2, align 8
  %3 = load ptr, ptr %2, align 8
  %4 = call ptr @tcgv_i32_temp(ptr noundef %3)
  ret ptr %4
}

; Function Attrs: inlinehint nounwind sspstrong uwtable
define internal i64 @temp_arg(ptr noundef %0) #4 {
  %2 = alloca ptr, align 8
  store ptr %0, ptr %2, align 8
  %3 = load ptr, ptr %2, align 8
  %4 = ptrtoint ptr %3 to i64
  ret i64 %4
}

; Function Attrs: inlinehint nounwind sspstrong uwtable
define internal ptr @tcgv_i64_temp(ptr noundef %0) #4 {
  %2 = alloca ptr, align 8
  store ptr %0, ptr %2, align 8
  %3 = load ptr, ptr %2, align 8
  %4 = call ptr @tcgv_i32_temp(ptr noundef %3)
  ret ptr %4
}

; Function Attrs: inlinehint nounwind sspstrong uwtable
define internal i64 @temp_idx(ptr noundef %0) #4 {
  %2 = alloca ptr, align 8
  store ptr %0, ptr %2, align 8
  %3 = load ptr, ptr %2, align 8
  %4 = call align 8 ptr @llvm.threadlocal.address.p0(ptr align 8 @tcg_ctx)
  %5 = load ptr, ptr %4, align 8
  %6 = getelementptr inbounds nuw %struct.TCGContext, ptr %5, i32 0, i32 38
  %7 = getelementptr inbounds [512 x %struct.TCGTemp], ptr %6, i64 0, i64 0
  %8 = ptrtoint ptr %3 to i64
  %9 = ptrtoint ptr %7 to i64
  %10 = sub i64 %8, %9
  %11 = sdiv exact i64 %10, 56
  ret i64 %11
}

; Function Attrs: inlinehint nounwind sspstrong uwtable
define internal i64 @tcgv_ptr_arg(ptr noundef %0) #4 {
  %2 = alloca ptr, align 8
  store ptr %0, ptr %2, align 8
  %3 = load ptr, ptr %2, align 8
  %4 = call ptr @tcgv_ptr_temp(ptr noundef %3)
  %5 = call i64 @temp_arg(ptr noundef %4)
  ret i64 %5
}

; Function Attrs: inlinehint nounwind sspstrong uwtable
define internal i64 @tcgv_i64_arg(ptr noundef %0) #4 {
  %2 = alloca ptr, align 8
  store ptr %0, ptr %2, align 8
  %3 = load ptr, ptr %2, align 8
  %4 = call ptr @tcgv_i64_temp(ptr noundef %3)
  %5 = call i64 @temp_arg(ptr noundef %4)
  ret i64 %5
}

; Function Attrs: inlinehint nounwind sspstrong uwtable
define internal ptr @temp_tcgv_i32(ptr noundef %0) #4 {
  %2 = alloca ptr, align 8
  store ptr %0, ptr %2, align 8
  %3 = load ptr, ptr %2, align 8
  %4 = call i64 @temp_idx(ptr noundef %3)
  %5 = load ptr, ptr %2, align 8
  %6 = call align 8 ptr @llvm.threadlocal.address.p0(ptr align 8 @tcg_ctx)
  %7 = load ptr, ptr %6, align 8
  %8 = ptrtoint ptr %5 to i64
  %9 = ptrtoint ptr %7 to i64
  %10 = sub i64 %8, %9
  %11 = inttoptr i64 %10 to ptr
  ret ptr %11
}

; Function Attrs: inlinehint nounwind sspstrong uwtable
define internal ptr @tcgv_i32_temp(ptr noundef %0) #4 {
  %2 = alloca ptr, align 8
  store ptr %0, ptr %2, align 8
  %3 = call align 8 ptr @llvm.threadlocal.address.p0(ptr align 8 @tcg_ctx)
  %4 = load ptr, ptr %3, align 8
  %5 = load ptr, ptr %2, align 8
  %6 = ptrtoint ptr %5 to i64
  %7 = getelementptr inbounds nuw i8, ptr %4, i64 %6
  ret ptr %7
}

; Function Attrs: nounwind sspstrong uwtable
define internal void @tcg_gen_ldst_op_i64(i32 noundef %0, ptr noundef %1, ptr noundef %2, i64 noundef %3) #3 {
  %5 = alloca i32, align 4
  %6 = alloca ptr, align 8
  %7 = alloca ptr, align 8
  %8 = alloca i64, align 8
  store i32 %0, ptr %5, align 4
  store ptr %1, ptr %6, align 8
  store ptr %2, ptr %7, align 8
  store i64 %3, ptr %8, align 8
  %9 = load i32, ptr %5, align 4
  %10 = load ptr, ptr %6, align 8
  %11 = call i64 @tcgv_i64_arg(ptr noundef %10)
  %12 = load ptr, ptr %7, align 8
  %13 = call i64 @tcgv_ptr_arg(ptr noundef %12)
  %14 = load i64, ptr %8, align 8
  %15 = call ptr @tcg_gen_op3(i32 noundef %9, i32 noundef 1, i64 noundef %11, i64 noundef %13, i64 noundef %14)
  ret void
}

; Function Attrs: inlinehint nounwind sspstrong uwtable
define internal ptr @temp_tcgv_i64(ptr noundef %0) #4 {
  %2 = alloca ptr, align 8
  store ptr %0, ptr %2, align 8
  %3 = load ptr, ptr %2, align 8
  %4 = call ptr @temp_tcgv_i32(ptr noundef %3)
  ret ptr %4
}

; Function Attrs: inlinehint nounwind sspstrong uwtable
define internal ptr @tcgv_i128_temp(ptr noundef %0) #4 {
  %2 = alloca ptr, align 8
  store ptr %0, ptr %2, align 8
  %3 = load ptr, ptr %2, align 8
  %4 = call ptr @tcgv_i32_temp(ptr noundef %3)
  ret ptr %4
}

; Function Attrs: inlinehint nounwind sspstrong uwtable
define internal ptr @TCGV128_HIGH(ptr noundef %0) #4 {
  %2 = alloca ptr, align 8
  %3 = alloca i32, align 4
  store ptr %0, ptr %2, align 8
  call void @llvm.lifetime.start.p0(i64 4, ptr %3) #7
  store i32 1, ptr %3, align 4
  %4 = load ptr, ptr %2, align 8
  %5 = call ptr @tcgv_i128_temp(ptr noundef %4)
  %6 = load i32, ptr %3, align 4
  %7 = sext i32 %6 to i64
  %8 = getelementptr inbounds %struct.TCGTemp, ptr %5, i64 %7
  %9 = call ptr @temp_tcgv_i64(ptr noundef %8)
  call void @llvm.lifetime.end.p0(i64 4, ptr %3) #7
  ret ptr %9
}

; Function Attrs: nounwind sspstrong uwtable
define dso_local void @tcg_gen_st_i64(ptr noundef %0, ptr noundef %1, i64 noundef %2) #3 {
  %4 = alloca ptr, align 8
  %5 = alloca ptr, align 8
  %6 = alloca i64, align 8
  store ptr %0, ptr %4, align 8
  store ptr %1, ptr %5, align 8
  store i64 %2, ptr %6, align 8
  %7 = load ptr, ptr %4, align 8
  %8 = load ptr, ptr %5, align 8
  %9 = load i64, ptr %6, align 8
  call void @tcg_gen_ldst_op_i64(i32 noundef 77, ptr noundef %7, ptr noundef %8, i64 noundef %9)
  ret void
}

; Function Attrs: inlinehint nounwind sspstrong uwtable
define internal ptr @TCGV128_LOW(ptr noundef %0) #4 {
  %2 = alloca ptr, align 8
  %3 = alloca i32, align 4
  store ptr %0, ptr %2, align 8
  call void @llvm.lifetime.start.p0(i64 4, ptr %3) #7
  store i32 0, ptr %3, align 4
  %4 = load ptr, ptr %2, align 8
  %5 = call ptr @tcgv_i128_temp(ptr noundef %4)
  %6 = load i32, ptr %3, align 4
  %7 = sext i32 %6 to i64
  %8 = getelementptr inbounds %struct.TCGTemp, ptr %5, i64 %7
  %9 = call ptr @temp_tcgv_i64(ptr noundef %8)
  call void @llvm.lifetime.end.p0(i64 4, ptr %3) #7
  ret ptr %9
}

; Function Attrs: nounwind sspstrong uwtable
define dso_local void @tcg_gen_st_i128(ptr noundef %0, ptr noundef %1, i64 noundef %2) #3 {
  %4 = alloca ptr, align 8
  %5 = alloca ptr, align 8
  %6 = alloca i64, align 8
  store ptr %0, ptr %4, align 8
  store ptr %1, ptr %5, align 8
  store i64 %2, ptr %6, align 8
  %7 = load ptr, ptr %4, align 8
  %8 = call ptr @TCGV128_LOW(ptr noundef %7)
  %9 = load ptr, ptr %5, align 8
  %10 = load i64, ptr %6, align 8
  call void @tcg_gen_st_i64(ptr noundef %8, ptr noundef %9, i64 noundef %10)
  %11 = load ptr, ptr %4, align 8
  %12 = call ptr @TCGV128_HIGH(ptr noundef %11)
  %13 = load ptr, ptr %5, align 8
  %14 = load i64, ptr %6, align 8
  %15 = add i64 %14, 8
  call void @tcg_gen_st_i64(ptr noundef %12, ptr noundef %13, i64 noundef %15)
  ret void
}