; Function Attrs: nounwind sspstrong uwtable
define dso_local void @tcg_gen_st_i128(ptr noundef %0, ptr noundef %1, i64 noundef %2) local_unnamed_addr #2 {
  %4 = tail call align 8 ptr @llvm.threadlocal.address.p0(ptr align 8 @tcg_ctx)
  %5 = load ptr, ptr %4, align 8
  %6 = ptrtoint ptr %0 to i64
  %7 = getelementptr inbounds nuw i8, ptr %5, i64 %6
  %8 = ptrtoint ptr %7 to i64
  %9 = ptrtoint ptr %1 to i64
  %10 = getelementptr inbounds nuw i8, ptr %5, i64 %9
  %11 = ptrtoint ptr %10 to i64
  %12 = tail call ptr @tcg_gen_op3(i32 noundef 77, i32 noundef 1, i64 noundef %8, i64 noundef %11, i64 noundef %2)
  %13 = load ptr, ptr %4, align 8
  %14 = getelementptr inbounds nuw i8, ptr %13, i64 %6
  %15 = getelementptr inbounds nuw i8, ptr %14, i64 56
  %16 = ptrtoint ptr %15 to i64
  %17 = add i64 %2, 8
  %18 = getelementptr inbounds nuw i8, ptr %13, i64 %9
  %19 = ptrtoint ptr %18 to i64
  %20 = tail call ptr @tcg_gen_op3(i32 noundef 77, i32 noundef 1, i64 noundef %16, i64 noundef %19, i64 noundef %17)
  ret void
}